; ModuleID = '45/369.c'
source_filename = "45/369.c"
target datalayout = "e-m:e-p270:32:32-p271:32:32-p272:64:64-i64:64-f80:128-n8:16:32:64-S128"
target triple = "x86_64-pc-linux-gnu"

@.str = private unnamed_addr constant [6 x i8] c"%s %s\00", align 1
@.str.1 = private unnamed_addr constant [4 x i8] c"%d\0A\00", align 1

; Function Attrs: noinline nounwind uwtable
define dso_local void @main() #0 {
  %1 = alloca [50 x i8], align 16
  %2 = alloca [50 x i8], align 16
  %3 = alloca i8*, align 8
  %4 = alloca i8*, align 8
  %5 = alloca i8*, align 8
  %6 = alloca i32, align 4
  %7 = alloca i32, align 4
  %8 = alloca i32, align 4
  %9 = getelementptr inbounds [50 x i8], [50 x i8]* %1, i64 0, i64 0
  %10 = getelementptr inbounds [50 x i8], [50 x i8]* %2, i64 0, i64 0
  %11 = call i32 (i8*, ...) @__isoc99_scanf(i8* getelementptr inbounds ([6 x i8], [6 x i8]* @.str, i64 0, i64 0), i8* %9, i8* %10)
  %12 = getelementptr inbounds [50 x i8], [50 x i8]* %1, i64 0, i64 0
  %13 = call i64 @strlen(i8* %12) #3
  %14 = trunc i64 %13 to i32
  store i32 %14, i32* %6, align 4
  %15 = getelementptr inbounds [50 x i8], [50 x i8]* %2, i64 0, i64 0
  %16 = call i64 @strlen(i8* %15) #3
  %17 = trunc i64 %16 to i32
  store i32 %17, i32* %7, align 4
  %18 = getelementptr inbounds [50 x i8], [50 x i8]* %1, i64 0, i64 0
  store i8* %18, i8** %3, align 8
  %19 = getelementptr inbounds [50 x i8], [50 x i8]* %2, i64 0, i64 0
  store i8* %19, i8** %4, align 8
  br label %20

20:                                               ; preds = %76, %0
  %21 = load i8*, i8** %4, align 8
  %22 = getelementptr inbounds [50 x i8], [50 x i8]* %2, i64 0, i64 0
  %23 = load i32, i32* %7, align 4
  %24 = sext i32 %23 to i64
  %25 = getelementptr inbounds i8, i8* %22, i64 %24
  %26 = icmp ult i8* %21, %25
  br i1 %26, label %27, label %79

27:                                               ; preds = %20
  %28 = load i8*, i8** %4, align 8
  %29 = load i8, i8* %28, align 1
  %30 = sext i8 %29 to i32
  %31 = load i8*, i8** %3, align 8
  %32 = load i8, i8* %31, align 1
  %33 = sext i8 %32 to i32
  %34 = icmp eq i32 %30, %33
  br i1 %34, label %35, label %75

35:                                               ; preds = %27
  %36 = load i8*, i8** %4, align 8
  store i8* %36, i8** %5, align 8
  store i32 0, i32* %8, align 4
  br label %37

37:                                               ; preds = %56, %35
  %38 = load i8*, i8** %3, align 8
  %39 = getelementptr inbounds [50 x i8], [50 x i8]* %2, i64 0, i64 0
  %40 = load i32, i32* %6, align 4
  %41 = sext i32 %40 to i64
  %42 = getelementptr inbounds i8, i8* %39, i64 %41
  %43 = icmp ult i8* %38, %42
  br i1 %43, label %44, label %61

44:                                               ; preds = %37
  %45 = load i8*, i8** %3, align 8
  %46 = load i8, i8* %45, align 1
  %47 = sext i8 %46 to i32
  %48 = load i8*, i8** %4, align 8
  %49 = load i8, i8* %48, align 1
  %50 = sext i8 %49 to i32
  %51 = icmp ne i32 %47, %50
  br i1 %51, label %52, label %55

52:                                               ; preds = %44
  %53 = load i32, i32* %8, align 4
  %54 = add nsw i32 %53, 1
  store i32 %54, i32* %8, align 4
  br label %61

55:                                               ; preds = %44
  br label %56

56:                                               ; preds = %55
  %57 = load i8*, i8** %3, align 8
  %58 = getelementptr inbounds i8, i8* %57, i32 1
  store i8* %58, i8** %3, align 8
  %59 = load i8*, i8** %4, align 8
  %60 = getelementptr inbounds i8, i8* %59, i32 1
  store i8* %60, i8** %4, align 8
  br label %37

61:                                               ; preds = %52, %37
  %62 = load i32, i32* %8, align 4
  %63 = icmp eq i32 %62, 0
  br i1 %63, label %64, label %71

64:                                               ; preds = %61
  %65 = load i8*, i8** %5, align 8
  %66 = getelementptr inbounds [50 x i8], [50 x i8]* %2, i64 0, i64 0
  %67 = ptrtoint i8* %65 to i64
  %68 = ptrtoint i8* %66 to i64
  %69 = sub i64 %67, %68
  %70 = call i32 (i8*, ...) @printf(i8* getelementptr inbounds ([4 x i8], [4 x i8]* @.str.1, i64 0, i64 0), i64 %69)
  br label %79

71:                                               ; preds = %61
  %72 = load i8*, i8** %5, align 8
  store i8* %72, i8** %4, align 8
  %73 = getelementptr inbounds [50 x i8], [50 x i8]* %1, i64 0, i64 0
  store i8* %73, i8** %3, align 8
  br label %74

74:                                               ; preds = %71
  br label %75

75:                                               ; preds = %74, %27
  br label %76

76:                                               ; preds = %75
  %77 = load i8*, i8** %4, align 8
  %78 = getelementptr inbounds i8, i8* %77, i32 1
  store i8* %78, i8** %4, align 8
  br label %20

79:                                               ; preds = %64, %20
  ret void
}

declare dso_local i32 @__isoc99_scanf(i8*, ...) #1

; Function Attrs: nounwind readonly
declare dso_local i64 @strlen(i8*) #2

declare dso_local i32 @printf(i8*, ...) #1


!llvm.module.flags = !{!0}
!llvm.ident = !{!1}

!0 = !{i32 1, !"wchar_size", i32 4}
!1 = !{!"clang version 10.0.0-4ubuntu1 "}
